target datalayout = "e-m:e-p270:32:32-p271:32:32-p272:64:64-i64:64-i128:128-f80:128-n8:16:32:64-S128"
target triple = "x86_64-pc-linux-gnu"

; Function Attrs: nounwind uwtable
define void @ff_acelp_reorder_lsf(ptr noundef %0, i32 noundef %1, i32 noundef %2, i32 noundef %3, i32 noundef %4) #0 {
  %6 = alloca ptr, align 8
  %7 = alloca i32, align 4
  %8 = alloca i32, align 4
  %9 = alloca i32, align 4
  %10 = alloca i32, align 4
  %11 = alloca i32, align 4
  %12 = alloca i32, align 4
  %13 = alloca i16, align 2
  store ptr %0, ptr %6, align 8, !tbaa !4
  store i32 %1, ptr %7, align 4, !tbaa !9
  store i32 %2, ptr %8, align 4, !tbaa !9
  store i32 %3, ptr %9, align 4, !tbaa !9
  store i32 %4, ptr %10, align 4, !tbaa !9
  call void @llvm.lifetime.start.p0(i64 4, ptr %11) #3
  call void @llvm.lifetime.start.p0(i64 4, ptr %12) #3
  store i32 0, ptr %11, align 4, !tbaa !9
  br label %14

14:                                               ; preds = %70, %5
  %15 = load i32, ptr %11, align 4, !tbaa !9
  %16 = load i32, ptr %10, align 4, !tbaa !9
  %17 = sub nsw i32 %16, 1
  %18 = icmp slt i32 %15, %17
  br i1 %18, label %19, label %73

19:                                               ; preds = %14
  %20 = load i32, ptr %11, align 4, !tbaa !9
  store i32 %20, ptr %12, align 4, !tbaa !9
  br label %21

21:                                               ; preds = %66, %19
  %22 = load i32, ptr %12, align 4, !tbaa !9
  %23 = icmp sge i32 %22, 0
  br i1 %23, label %24, label %39

24:                                               ; preds = %21
  %25 = load ptr, ptr %6, align 8, !tbaa !4
  %26 = load i32, ptr %12, align 4, !tbaa !9
  %27 = sext i32 %26 to i64
  %28 = getelementptr inbounds i16, ptr %25, i64 %27
  %29 = load i16, ptr %28, align 2, !tbaa !11
  %30 = sext i16 %29 to i32
  %31 = load ptr, ptr %6, align 8, !tbaa !4
  %32 = load i32, ptr %12, align 4, !tbaa !9
  %33 = add nsw i32 %32, 1
  %34 = sext i32 %33 to i64
  %35 = getelementptr inbounds i16, ptr %31, i64 %34
  %36 = load i16, ptr %35, align 2, !tbaa !11
  %37 = sext i16 %36 to i32
  %38 = icmp sgt i32 %30, %37
  br label %39

39:                                               ; preds = %24, %21
  %40 = phi i1 [ false, %21 ], [ %38, %24 ]
  br i1 %40, label %41, label %69

41:                                               ; preds = %39
  br label %42

42:                                               ; preds = %41
  call void @llvm.lifetime.start.p0(i64 2, ptr %13) #3
  %43 = load ptr, ptr %6, align 8, !tbaa !4
  %44 = load i32, ptr %12, align 4, !tbaa !9
  %45 = add nsw i32 %44, 1
  %46 = sext i32 %45 to i64
  %47 = getelementptr inbounds i16, ptr %43, i64 %46
  %48 = load i16, ptr %47, align 2, !tbaa !11
  store i16 %48, ptr %13, align 2, !tbaa !11
  %49 = load ptr, ptr %6, align 8, !tbaa !4
  %50 = load i32, ptr %12, align 4, !tbaa !9
  %51 = sext i32 %50 to i64
  %52 = getelementptr inbounds i16, ptr %49, i64 %51
  %53 = load i16, ptr %52, align 2, !tbaa !11
  %54 = load ptr, ptr %6, align 8, !tbaa !4
  %55 = load i32, ptr %12, align 4, !tbaa !9
  %56 = add nsw i32 %55, 1
  %57 = sext i32 %56 to i64
  %58 = getelementptr inbounds i16, ptr %54, i64 %57
  store i16 %53, ptr %58, align 2, !tbaa !11
  %59 = load i16, ptr %13, align 2, !tbaa !11
  %60 = load ptr, ptr %6, align 8, !tbaa !4
  %61 = load i32, ptr %12, align 4, !tbaa !9
  %62 = sext i32 %61 to i64
  %63 = getelementptr inbounds i16, ptr %60, i64 %62
  store i16 %59, ptr %63, align 2, !tbaa !11
  call void @llvm.lifetime.end.p0(i64 2, ptr %13) #3
  br label %64

64:                                               ; preds = %42
  br label %65

65:                                               ; preds = %64
  br label %66

66:                                               ; preds = %65
  %67 = load i32, ptr %12, align 4, !tbaa !9
  %68 = add nsw i32 %67, -1
  store i32 %68, ptr %12, align 4, !tbaa !9
  br label %21, !llvm.loop !13

69:                                               ; preds = %39
  br label %70

70:                                               ; preds = %69
  %71 = load i32, ptr %11, align 4, !tbaa !9
  %72 = add nsw i32 %71, 1
  store i32 %72, ptr %11, align 4, !tbaa !9
  br label %14, !llvm.loop !15

73:                                               ; preds = %14
  store i32 0, ptr %11, align 4, !tbaa !9
  br label %74

74:                                               ; preds = %111, %73
  %75 = load i32, ptr %11, align 4, !tbaa !9
  %76 = load i32, ptr %10, align 4, !tbaa !9
  %77 = icmp slt i32 %75, %76
  br i1 %77, label %78, label %114

78:                                               ; preds = %74
  %79 = load ptr, ptr %6, align 8, !tbaa !4
  %80 = load i32, ptr %11, align 4, !tbaa !9
  %81 = sext i32 %80 to i64
  %82 = getelementptr inbounds i16, ptr %79, i64 %81
  %83 = load i16, ptr %82, align 2, !tbaa !11
  %84 = sext i16 %83 to i32
  %85 = load i32, ptr %8, align 4, !tbaa !9
  %86 = icmp sgt i32 %84, %85
  br i1 %86, label %87, label %94

87:                                               ; preds = %78
  %88 = load ptr, ptr %6, align 8, !tbaa !4
  %89 = load i32, ptr %11, align 4, !tbaa !9
  %90 = sext i32 %89 to i64
  %91 = getelementptr inbounds i16, ptr %88, i64 %90
  %92 = load i16, ptr %91, align 2, !tbaa !11
  %93 = sext i16 %92 to i32
  br label %96

94:                                               ; preds = %78
  %95 = load i32, ptr %8, align 4, !tbaa !9
  br label %96

96:                                               ; preds = %94, %87
  %97 = phi i32 [ %93, %87 ], [ %95, %94 ]
  %98 = trunc i32 %97 to i16
  %99 = load ptr, ptr %6, align 8, !tbaa !4
  %100 = load i32, ptr %11, align 4, !tbaa !9
  %101 = sext i32 %100 to i64
  %102 = getelementptr inbounds i16, ptr %99, i64 %101
  store i16 %98, ptr %102, align 2, !tbaa !11
  %103 = load ptr, ptr %6, align 8, !tbaa !4
  %104 = load i32, ptr %11, align 4, !tbaa !9
  %105 = sext i32 %104 to i64
  %106 = getelementptr inbounds i16, ptr %103, i64 %105
  %107 = load i16, ptr %106, align 2, !tbaa !11
  %108 = sext i16 %107 to i32
  %109 = load i32, ptr %7, align 4, !tbaa !9
  %110 = add nsw i32 %108, %109
  store i32 %110, ptr %8, align 4, !tbaa !9
  br label %111

111:                                              ; preds = %96
  %112 = load i32, ptr %11, align 4, !tbaa !9
  %113 = add nsw i32 %112, 1
  store i32 %113, ptr %11, align 4, !tbaa !9
  br label %74, !llvm.loop !16

114:                                              ; preds = %74
  %115 = load ptr, ptr %6, align 8, !tbaa !4
  %116 = load i32, ptr %10, align 4, !tbaa !9
  %117 = sub nsw i32 %116, 1
  %118 = sext i32 %117 to i64
  %119 = getelementptr inbounds i16, ptr %115, i64 %118
  %120 = load i16, ptr %119, align 2, !tbaa !11
  %121 = sext i16 %120 to i32
  %122 = load i32, ptr %9, align 4, !tbaa !9
  %123 = icmp sgt i32 %121, %122
  br i1 %123, label %124, label %126

124:                                              ; preds = %114
  %125 = load i32, ptr %9, align 4, !tbaa !9
  br label %134

126:                                              ; preds = %114
  %127 = load ptr, ptr %6, align 8, !tbaa !4
  %128 = load i32, ptr %10, align 4, !tbaa !9
  %129 = sub nsw i32 %128, 1
  %130 = sext i32 %129 to i64
  %131 = getelementptr inbounds i16, ptr %127, i64 %130
  %132 = load i16, ptr %131, align 2, !tbaa !11
  %133 = sext i16 %132 to i32
  br label %134

134:                                              ; preds = %126, %124
  %135 = phi i32 [ %125, %124 ], [ %133, %126 ]
  %136 = trunc i32 %135 to i16
  %137 = load ptr, ptr %6, align 8, !tbaa !4
  %138 = load i32, ptr %10, align 4, !tbaa !9
  %139 = sub nsw i32 %138, 1
  %140 = sext i32 %139 to i64
  %141 = getelementptr inbounds i16, ptr %137, i64 %140
  store i16 %136, ptr %141, align 2, !tbaa !11
  call void @llvm.lifetime.end.p0(i64 4, ptr %12) #3
  call void @llvm.lifetime.end.p0(i64 4, ptr %11) #3
  ret void
}