; Function Attrs: nofree norecurse nosync nounwind memory(argmem: readwrite) uwtable
define void @ff_acelp_reorder_lsf(ptr noundef captures(none) %0, i32 noundef %1, i32 noundef %2, i32 noundef %3, i32 noundef %4) local_unnamed_addr #0 {
  %6 = add i32 %4, -1
  %7 = icmp sgt i32 %4, 1
  br i1 %7, label %.lr.ph.preheader, label %.preheader

.lr.ph.preheader:                                 ; preds = %5, %.critedge
  %.04149 = phi i32 [ %18, %.critedge ], [ 0, %5 ]
  br label %.lr.ph

.preheader:                                       ; preds = %.critedge, %5
  %8 = icmp sgt i32 %4, 0
  br i1 %8, label %.lr.ph52.preheader, label %._crit_edge

.lr.ph52.preheader:                               ; preds = %.preheader
  %wide.trip.count = zext nneg i32 %4 to i64
  br label %.lr.ph52

.lr.ph:                                           ; preds = %.lr.ph.preheader, %15
  %.04047 = phi i32 [ %16, %15 ], [ %.04149, %.lr.ph.preheader ]
  %9 = zext nneg i32 %.04047 to i64
  %10 = getelementptr inbounds nuw i16, ptr %0, i64 %9
  %11 = load i16, ptr %10, align 2, !tbaa !4
  %12 = getelementptr inbounds nuw i8, ptr %10, i64 2
  %13 = load i16, ptr %12, align 2, !tbaa !4
  %14 = icmp sgt i16 %11, %13
  br i1 %14, label %15, label %.critedge

15:                                               ; preds = %.lr.ph
  store i16 %11, ptr %12, align 2, !tbaa !4
  store i16 %13, ptr %10, align 2, !tbaa !4
  %16 = add nsw i32 %.04047, -1
  %17 = icmp sgt i32 %.04047, 0
  br i1 %17, label %.lr.ph, label %.critedge, !llvm.loop !8

.critedge:                                        ; preds = %15, %.lr.ph
  %18 = add nuw nsw i32 %.04149, 1
  %exitcond.not = icmp eq i32 %18, %6
  br i1 %exitcond.not, label %.preheader, label %.lr.ph.preheader, !llvm.loop !10

.lr.ph52:                                         ; preds = %.lr.ph52.preheader, %.lr.ph52
  %indvars.iv = phi i64 [ 0, %.lr.ph52.preheader ], [ %indvars.iv.next, %.lr.ph52 ]
  %.051 = phi i32 [ %2, %.lr.ph52.preheader ], [ %25, %.lr.ph52 ]
  %19 = getelementptr inbounds nuw i16, ptr %0, i64 %indvars.iv
  %20 = load i16, ptr %19, align 2, !tbaa !4
  %21 = sext i16 %20 to i32
  %22 = tail call i32 @llvm.smax.i32(i32 %.051, i32 %21)
  %23 = trunc i32 %22 to i16
  store i16 %23, ptr %19, align 2, !tbaa !4
  %sext = shl i32 %22, 16
  %24 = ashr exact i32 %sext, 16
  %25 = add nsw i32 %24, %1
  %indvars.iv.next = add nuw nsw i64 %indvars.iv, 1
  %exitcond54.not = icmp eq i64 %indvars.iv.next, %wide.trip.count
  br i1 %exitcond54.not, label %._crit_edge, label %.lr.ph52, !llvm.loop !11

._crit_edge:                                      ; preds = %.lr.ph52, %.preheader
  %26 = sext i32 %6 to i64
  %27 = getelementptr inbounds i16, ptr %0, i64 %26
  %28 = load i16, ptr %27, align 2, !tbaa !4
  %29 = sext i16 %28 to i32
  %30 = tail call i32 @llvm.smin.i32(i32 %3, i32 %29)
  %31 = trunc i32 %30 to i16
  store i16 %31, ptr %27, align 2, !tbaa !4
  ret void
}